; Function Attrs: alwaysinline nofree norecurse nosync nounwind memory(argmem: readwrite) uwtable
define internal void @pred_planar_8(ptr noundef writeonly captures(none) %0, ptr noundef readonly captures(none) %1, ptr noundef readonly captures(none) %2, i32 noundef %3, i32 noundef %4, i64 noundef %5) #6 {
  %.not.i42 = icmp ult i32 %3, 65536
  %7 = lshr i32 %3, 16
  %spec.select.i43 = select i1 %.not.i42, i32 %3, i32 %7
  %spec.select12.i44 = select i1 %.not.i42, i32 0, i32 16
  %.not11.i45 = icmp samesign ult i32 %spec.select.i43, 256
  %8 = lshr i32 %spec.select.i43, 8
  %9 = or disjoint i32 %spec.select12.i44, 8
  %.110.i46 = select i1 %.not11.i45, i32 %spec.select.i43, i32 %8
  %.1.i47 = select i1 %.not11.i45, i32 %spec.select12.i44, i32 %9
  %10 = zext nneg i32 %.110.i46 to i64
  %11 = getelementptr inbounds nuw [256 x i8], ptr @ff_log2_tab, i64 0, i64 %10
  %12 = load i8, ptr %11, align 1, !tbaa !128
  %13 = zext i8 %12 to i32
  %14 = add nuw nsw i32 %.1.i47, %13
  %.not.i = icmp ult i32 %4, 65536
  %15 = lshr i32 %4, 16
  %spec.select.i = select i1 %.not.i, i32 %4, i32 %15
  %spec.select12.i = select i1 %.not.i, i32 0, i32 16
  %.not11.i = icmp samesign ult i32 %spec.select.i, 256
  %16 = lshr i32 %spec.select.i, 8
  %17 = or disjoint i32 %spec.select12.i, 8
  %.110.i = select i1 %.not11.i, i32 %spec.select.i, i32 %16
  %.1.i = select i1 %.not11.i, i32 %spec.select12.i, i32 %17
  %18 = zext nneg i32 %.110.i to i64
  %19 = getelementptr inbounds nuw [256 x i8], ptr @ff_log2_tab, i64 0, i64 %18
  %20 = load i8, ptr %19, align 1, !tbaa !128
  %21 = zext i8 %20 to i32
  %22 = add nuw nsw i32 %.1.i, %21
  %23 = mul nsw i32 %4, %3
  %24 = add nuw nsw i32 %14, 1
  %25 = add nuw nsw i32 %24, %22
  %26 = icmp sgt i32 %4, 0
  br i1 %26, label %.preheader.lr.ph, label %._crit_edge50

.preheader.lr.ph:                                 ; preds = %6
  %27 = icmp sgt i32 %3, 0
  %28 = zext nneg i32 %4 to i64
  %29 = getelementptr inbounds nuw i8, ptr %2, i64 %28
  %30 = sext i32 %3 to i64
  %31 = getelementptr inbounds i8, ptr %1, i64 %30
  br i1 %27, label %.preheader.us.preheader, label %._crit_edge50

.preheader.us.preheader:                          ; preds = %.preheader.lr.ph
  %wide.trip.count = zext nneg i32 %3 to i64
  br label %.preheader.us

.preheader.us:                                    ; preds = %.preheader.us.preheader, %._crit_edge.us
  %indvars.iv53 = phi i64 [ 0, %.preheader.us.preheader ], [ %indvars.iv.next54, %._crit_edge.us ]
  %32 = trunc nuw nsw i64 %indvars.iv53 to i32
  %33 = xor i32 %32, -1
  %34 = add nsw i32 %4, %33
  %indvars.iv.next54 = add nuw nsw i64 %indvars.iv53, 1
  %35 = getelementptr inbounds nuw i8, ptr %2, i64 %indvars.iv53
  %36 = mul nsw i64 %5, %indvars.iv53
  %37 = getelementptr i8, ptr %0, i64 %36
  %38 = trunc nuw nsw i64 %indvars.iv.next54 to i32
  br label %39

39:                                               ; preds = %.preheader.us, %39
  %indvars.iv = phi i64 [ 0, %.preheader.us ], [ %indvars.iv.next, %39 ]
  %40 = getelementptr inbounds nuw i8, ptr %1, i64 %indvars.iv
  %41 = load i8, ptr %40, align 1, !tbaa !128
  %42 = zext i8 %41 to i32
  %43 = mul nsw i32 %34, %42
  %44 = load i8, ptr %29, align 1, !tbaa !128
  %45 = zext i8 %44 to i32
  %46 = mul nuw nsw i32 %38, %45
  %47 = add nsw i32 %46, %43
  %48 = shl i32 %47, %14
  %49 = trunc nuw nsw i64 %indvars.iv to i32
  %50 = xor i32 %49, -1
  %51 = add nsw i32 %3, %50
  %52 = load i8, ptr %35, align 1, !tbaa !128
  %53 = zext i8 %52 to i32
  %54 = mul nsw i32 %51, %53
  %indvars.iv.next = add nuw nsw i64 %indvars.iv, 1
  %55 = load i8, ptr %31, align 1, !tbaa !128
  %56 = zext i8 %55 to i32
  %57 = trunc nuw nsw i64 %indvars.iv.next to i32
  %58 = mul nuw nsw i32 %57, %56
  %59 = add nsw i32 %58, %54
  %60 = shl i32 %59, %22
  %61 = add i32 %48, %23
  %62 = add i32 %61, %60
  %63 = ashr i32 %62, %25
  %64 = trunc i32 %63 to i8
  %65 = getelementptr i8, ptr %37, i64 %indvars.iv
  store i8 %64, ptr %65, align 1, !tbaa !128
  %exitcond.not = icmp eq i64 %indvars.iv.next, %wide.trip.count
  br i1 %exitcond.not, label %._crit_edge.us, label %39, !llvm.loop !786

._crit_edge.us:                                   ; preds = %39
  %exitcond57.not = icmp eq i64 %indvars.iv.next54, %28
  br i1 %exitcond57.not, label %._crit_edge50, label %.preheader.us, !llvm.loop !787

._crit_edge50:                                    ; preds = %._crit_edge.us, %.preheader.lr.ph, %6
  ret void
}